; ModuleID = '17/1135.c'
source_filename = "17/1135.c"
target datalayout = "e-m:e-p270:32:32-p271:32:32-p272:64:64-i64:64-f80:128-n8:16:32:64-S128"
target triple = "x86_64-pc-linux-gnu"

@.str = private unnamed_addr constant [3 x i8] c"%s\00", align 1
@.str.1 = private unnamed_addr constant [4 x i8] c"%s\0A\00", align 1
@.str.2 = private unnamed_addr constant [2 x i8] c"?\00", align 1
@.str.3 = private unnamed_addr constant [2 x i8] c"$\00", align 1
@.str.4 = private unnamed_addr constant [2 x i8] c" \00", align 1
@.str.5 = private unnamed_addr constant [2 x i8] c"\0A\00", align 1

; Function Attrs: noinline nounwind uwtable
define dso_local i32 @main() #0 {
  %1 = alloca i32, align 4
  %2 = alloca [1000 x i8], align 16
  %3 = alloca [1000 x i8], align 16
  %4 = alloca [1000 x i32], align 16
  %5 = alloca i32, align 4
  %6 = alloca i32, align 4
  %7 = alloca i32, align 4
  %8 = alloca i32, align 4
  %9 = alloca i32, align 4
  store i32 0, i32* %1, align 4
  store i32 0, i32* %6, align 4
  store i32 0, i32* %7, align 4
  %10 = getelementptr inbounds [1000 x i8], [1000 x i8]* %3, i64 0, i64 0
  call void @llvm.memset.p0i8.i64(i8* align 16 %10, i8 2, i64 1000, i1 false)
  br label %11

11:                                               ; preds = %0, %145
  store i32 0, i32* %7, align 4
  store i32 0, i32* %6, align 4
  %12 = getelementptr inbounds [1000 x i8], [1000 x i8]* %2, i64 0, i64 0
  %13 = call i32 (i8*, ...) @__isoc99_scanf(i8* getelementptr inbounds ([3 x i8], [3 x i8]* @.str, i64 0, i64 0), i8* %12)
  %14 = getelementptr inbounds [1000 x i8], [1000 x i8]* %3, i64 0, i64 0
  %15 = getelementptr inbounds [1000 x i8], [1000 x i8]* %2, i64 0, i64 0
  %16 = call i32 @strcmp(i8* %14, i8* %15) #5
  %17 = icmp eq i32 %16, 0
  br i1 %17, label %18, label %19

18:                                               ; preds = %11
  br label %147

19:                                               ; preds = %11
  %20 = getelementptr inbounds [1000 x i8], [1000 x i8]* %3, i64 0, i64 0
  %21 = getelementptr inbounds [1000 x i8], [1000 x i8]* %2, i64 0, i64 0
  %22 = call i8* @strcpy(i8* %20, i8* %21) #6
  br label %23

23:                                               ; preds = %19
  %24 = getelementptr inbounds [1000 x i32], [1000 x i32]* %4, i64 0, i64 0
  %25 = bitcast i32* %24 to i8*
  call void @llvm.memset.p0i8.i64(i8* align 16 %25, i8 0, i64 4000, i1 false)
  %26 = getelementptr inbounds [1000 x i8], [1000 x i8]* %2, i64 0, i64 0
  %27 = call i64 @strlen(i8* %26) #5
  %28 = trunc i64 %27 to i32
  store i32 %28, i32* %8, align 4
  store i32 0, i32* %5, align 4
  br label %29

29:                                               ; preds = %61, %23
  %30 = load i32, i32* %5, align 4
  %31 = load i32, i32* %8, align 4
  %32 = icmp slt i32 %30, %31
  br i1 %32, label %33, label %64

33:                                               ; preds = %29
  %34 = load i32, i32* %5, align 4
  %35 = sext i32 %34 to i64
  %36 = getelementptr inbounds [1000 x i8], [1000 x i8]* %2, i64 0, i64 %35
  %37 = load i8, i8* %36, align 1
  %38 = sext i8 %37 to i32
  %39 = icmp eq i32 %38, 40
  br i1 %39, label %40, label %43

40:                                               ; preds = %33
  %41 = load i32, i32* %6, align 4
  %42 = add nsw i32 %41, 1
  store i32 %42, i32* %6, align 4
  br label %60

43:                                               ; preds = %33
  %44 = load i32, i32* %5, align 4
  %45 = sext i32 %44 to i64
  %46 = getelementptr inbounds [1000 x i8], [1000 x i8]* %2, i64 0, i64 %45
  %47 = load i8, i8* %46, align 1
  %48 = sext i8 %47 to i32
  %49 = icmp eq i32 %48, 41
  br i1 %49, label %50, label %59

50:                                               ; preds = %43
  %51 = load i32, i32* %6, align 4
  %52 = icmp sgt i32 %51, 0
  br i1 %52, label %53, label %59

53:                                               ; preds = %50
  %54 = load i32, i32* %6, align 4
  %55 = add nsw i32 %54, -1
  store i32 %55, i32* %6, align 4
  %56 = load i32, i32* %5, align 4
  %57 = sext i32 %56 to i64
  %58 = getelementptr inbounds [1000 x i32], [1000 x i32]* %4, i64 0, i64 %57
  store i32 1, i32* %58, align 4
  br label %59

59:                                               ; preds = %53, %50, %43
  br label %60

60:                                               ; preds = %59, %40
  br label %61

61:                                               ; preds = %60
  %62 = load i32, i32* %5, align 4
  %63 = add nsw i32 %62, 1
  store i32 %63, i32* %5, align 4
  br label %29

64:                                               ; preds = %29
  %65 = load i32, i32* %8, align 4
  %66 = sub nsw i32 %65, 1
  store i32 %66, i32* %9, align 4
  br label %67

67:                                               ; preds = %98, %64
  %68 = load i32, i32* %9, align 4
  %69 = icmp sge i32 %68, 0
  br i1 %69, label %70, label %101

70:                                               ; preds = %67
  %71 = load i32, i32* %9, align 4
  %72 = sext i32 %71 to i64
  %73 = getelementptr inbounds [1000 x i8], [1000 x i8]* %2, i64 0, i64 %72
  %74 = load i8, i8* %73, align 1
  %75 = sext i8 %74 to i32
  %76 = icmp eq i32 %75, 41
  br i1 %76, label %77, label %80

77:                                               ; preds = %70
  %78 = load i32, i32* %7, align 4
  %79 = add nsw i32 %78, 1
  store i32 %79, i32* %7, align 4
  br label %97

80:                                               ; preds = %70
  %81 = load i32, i32* %9, align 4
  %82 = sext i32 %81 to i64
  %83 = getelementptr inbounds [1000 x i8], [1000 x i8]* %2, i64 0, i64 %82
  %84 = load i8, i8* %83, align 1
  %85 = sext i8 %84 to i32
  %86 = icmp eq i32 %85, 40
  br i1 %86, label %87, label %96

87:                                               ; preds = %80
  %88 = load i32, i32* %7, align 4
  %89 = icmp sgt i32 %88, 0
  br i1 %89, label %90, label %96

90:                                               ; preds = %87
  %91 = load i32, i32* %7, align 4
  %92 = add nsw i32 %91, -1
  store i32 %92, i32* %7, align 4
  %93 = load i32, i32* %9, align 4
  %94 = sext i32 %93 to i64
  %95 = getelementptr inbounds [1000 x i32], [1000 x i32]* %4, i64 0, i64 %94
  store i32 1, i32* %95, align 4
  br label %96

96:                                               ; preds = %90, %87, %80
  br label %97

97:                                               ; preds = %96, %77
  br label %98

98:                                               ; preds = %97
  %99 = load i32, i32* %9, align 4
  %100 = add nsw i32 %99, -1
  store i32 %100, i32* %9, align 4
  br label %67

101:                                              ; preds = %67
  %102 = getelementptr inbounds [1000 x i8], [1000 x i8]* %2, i64 0, i64 0
  %103 = call i32 (i8*, ...) @printf(i8* getelementptr inbounds ([4 x i8], [4 x i8]* @.str.1, i64 0, i64 0), i8* %102)
  store i32 0, i32* %5, align 4
  br label %104

104:                                              ; preds = %142, %101
  %105 = load i32, i32* %5, align 4
  %106 = load i32, i32* %8, align 4
  %107 = icmp slt i32 %105, %106
  br i1 %107, label %108, label %145

108:                                              ; preds = %104
  %109 = load i32, i32* %5, align 4
  %110 = sext i32 %109 to i64
  %111 = getelementptr inbounds [1000 x i32], [1000 x i32]* %4, i64 0, i64 %110
  %112 = load i32, i32* %111, align 4
  %113 = icmp eq i32 %112, 0
  br i1 %113, label %114, label %123

114:                                              ; preds = %108
  %115 = load i32, i32* %5, align 4
  %116 = sext i32 %115 to i64
  %117 = getelementptr inbounds [1000 x i8], [1000 x i8]* %2, i64 0, i64 %116
  %118 = load i8, i8* %117, align 1
  %119 = sext i8 %118 to i32
  %120 = icmp eq i32 %119, 41
  br i1 %120, label %121, label %123

121:                                              ; preds = %114
  %122 = call i32 (i8*, ...) @printf(i8* getelementptr inbounds ([2 x i8], [2 x i8]* @.str.2, i64 0, i64 0))
  br label %141

123:                                              ; preds = %114, %108
  %124 = load i32, i32* %5, align 4
  %125 = sext i32 %124 to i64
  %126 = getelementptr inbounds [1000 x i32], [1000 x i32]* %4, i64 0, i64 %125
  %127 = load i32, i32* %126, align 4
  %128 = icmp eq i32 %127, 0
  br i1 %128, label %129, label %138

129:                                              ; preds = %123
  %130 = load i32, i32* %5, align 4
  %131 = sext i32 %130 to i64
  %132 = getelementptr inbounds [1000 x i8], [1000 x i8]* %2, i64 0, i64 %131
  %133 = load i8, i8* %132, align 1
  %134 = sext i8 %133 to i32
  %135 = icmp eq i32 %134, 40
  br i1 %135, label %136, label %138

136:                                              ; preds = %129
  %137 = call i32 (i8*, ...) @printf(i8* getelementptr inbounds ([2 x i8], [2 x i8]* @.str.3, i64 0, i64 0))
  br label %140

138:                                              ; preds = %129, %123
  %139 = call i32 (i8*, ...) @printf(i8* getelementptr inbounds ([2 x i8], [2 x i8]* @.str.4, i64 0, i64 0))
  br label %140

140:                                              ; preds = %138, %136
  br label %141

141:                                              ; preds = %140, %121
  br label %142

142:                                              ; preds = %141
  %143 = load i32, i32* %5, align 4
  %144 = add nsw i32 %143, 1
  store i32 %144, i32* %5, align 4
  br label %104

145:                                              ; preds = %104
  %146 = call i32 (i8*, ...) @printf(i8* getelementptr inbounds ([2 x i8], [2 x i8]* @.str.5, i64 0, i64 0))
  br label %11

147:                                              ; preds = %18
  ret i32 0
}

; Function Attrs: argmemonly nounwind willreturn
declare void @llvm.memset.p0i8.i64(i8* nocapture writeonly, i8, i64, i1 immarg) #1

declare dso_local i32 @__isoc99_scanf(i8*, ...) #2

; Function Attrs: nounwind readonly
declare dso_local i32 @strcmp(i8*, i8*) #3

; Function Attrs: nounwind
declare dso_local i8* @strcpy(i8*, i8*) #4

; Function Attrs: nounwind readonly
declare dso_local i64 @strlen(i8*) #3

declare dso_local i32 @printf(i8*, ...) #2


!llvm.module.flags = !{!0}
!llvm.ident = !{!1}

!0 = !{i32 1, !"wchar_size", i32 4}
!1 = !{!"clang version 10.0.0-4ubuntu1 "}
